target datalayout = "e-m:e-p270:32:32-p271:32:32-p272:64:64-i64:64-i128:128-f80:128-n8:16:32:64-S128"
target triple = "x86_64-pc-linux-gnu"

%"class.std::basic_ostream" = type { ptr, %"class.std::basic_ios" }
%"class.std::basic_ios" = type { %"class.std::ios_base", ptr, i8, i8, ptr, ptr, ptr, ptr }
%"class.std::ios_base" = type { ptr, i64, i64, i32, i32, i32, ptr, %"struct.std::ios_base::_Words", [8 x %"struct.std::ios_base::_Words"], i32, ptr, %"class.std::locale" }
%"struct.std::ios_base::_Words" = type { ptr, i64 }
%"class.std::locale" = type { ptr }
%"class.OpenImageIO::v3_1_0::basic_string_view" = type { ptr, i64 }
%"class.OpenImageIO::v3_1_0::Sysutil::Term" = type { i8 }

@stderr = external global ptr, align 8
@_ZSt4cout = external global %"class.std::basic_ostream", align 8
@stdout = external global ptr, align 8
@_ZSt4cerr = external global %"class.std::basic_ostream", align 8
@_ZSt4clog = external global %"class.std::basic_ostream", align 8
@.str.30 = private unnamed_addr constant [5 x i8] c"TERM\00", align 1

; Function Attrs: mustprogress nounwind uwtable
define linkonce_odr noundef i32 @_ZNSt11char_traitsIcE7compareEPKcS2_m(ptr noundef %0, ptr noundef %1, i64 noundef %2) #10 comdat align 2 {
  %4 = alloca i32, align 4
  %5 = alloca ptr, align 8
  %6 = alloca ptr, align 8
  %7 = alloca i64, align 8
  store ptr %0, ptr %5, align 8, !tbaa !29
  store ptr %1, ptr %6, align 8, !tbaa !29
  store i64 %2, ptr %7, align 8, !tbaa !10
  %8 = load i64, ptr %7, align 8, !tbaa !10
  %9 = icmp eq i64 %8, 0
  br i1 %9, label %10, label %11

10:                                               ; preds = %3
  store i32 0, ptr %4, align 4
  br label %16

11:                                               ; preds = %3
  %12 = load ptr, ptr %5, align 8, !tbaa !29
  %13 = load ptr, ptr %6, align 8, !tbaa !29
  %14 = load i64, ptr %7, align 8, !tbaa !10
  %15 = call i32 @memcmp(ptr noundef %12, ptr noundef %13, i64 noundef %14) #3
  store i32 %15, ptr %4, align 4
  br label %16

16:                                               ; preds = %11, %10
  %17 = load i32, ptr %4, align 4
  ret i32 %17
}

; Function Attrs: inlinehint mustprogress nounwind uwtable
define linkonce_odr noundef nonnull align 8 dereferenceable(8) ptr @_ZSt3minImERKT_S2_S2_(ptr noundef nonnull align 8 dereferenceable(8) %0, ptr noundef nonnull align 8 dereferenceable(8) %1) #4 comdat {
  %3 = alloca ptr, align 8
  %4 = alloca ptr, align 8
  %5 = alloca ptr, align 8
  store ptr %0, ptr %4, align 8, !tbaa !20
  store ptr %1, ptr %5, align 8, !tbaa !20
  %6 = load ptr, ptr %5, align 8, !tbaa !20
  %7 = load i64, ptr %6, align 8, !tbaa !10
  %8 = load ptr, ptr %4, align 8, !tbaa !20
  %9 = load i64, ptr %8, align 8, !tbaa !10
  %10 = icmp ult i64 %7, %9
  br i1 %10, label %11, label %13

11:                                               ; preds = %2
  %12 = load ptr, ptr %5, align 8, !tbaa !20
  store ptr %12, ptr %3, align 8
  br label %15

13:                                               ; preds = %2
  %14 = load ptr, ptr %4, align 8, !tbaa !20
  store ptr %14, ptr %3, align 8
  br label %15

15:                                               ; preds = %13, %11
  %16 = load ptr, ptr %3, align 8
  ret ptr %16
}

; Function Attrs: mustprogress nounwind uwtable
define linkonce_odr hidden noundef i32 @_ZNK11OpenImageIO6v3_1_017basic_string_viewIcSt11char_traitsIcEE7compareES4_(ptr noundef nonnull align 8 dereferenceable(16) %0, ptr noundef %1) #10 comdat align 2 personality ptr @__gxx_personality_v0 {
  %3 = alloca ptr, align 8
  %4 = alloca ptr, align 8
  %5 = alloca i32, align 4
  store ptr %0, ptr %3, align 8, !tbaa !31
  store ptr %1, ptr %4, align 8, !tbaa !31
  %6 = load ptr, ptr %3, align 8
  call void @llvm.lifetime.start.p0(i64 4, ptr %5) #3
  %7 = getelementptr inbounds nuw %"class.OpenImageIO::v3_1_0::basic_string_view", ptr %6, i32 0, i32 0
  %8 = load ptr, ptr %7, align 8, !tbaa !35
  %9 = getelementptr inbounds nuw %"class.OpenImageIO::v3_1_0::basic_string_view", ptr %1, i32 0, i32 0
  %10 = load ptr, ptr %9, align 8, !tbaa !35
  %11 = getelementptr inbounds nuw %"class.OpenImageIO::v3_1_0::basic_string_view", ptr %6, i32 0, i32 1
  %12 = getelementptr inbounds nuw %"class.OpenImageIO::v3_1_0::basic_string_view", ptr %1, i32 0, i32 1
  %13 = invoke noundef nonnull align 8 dereferenceable(8) ptr @_ZSt3minImERKT_S2_S2_(ptr noundef nonnull align 8 dereferenceable(8) %11, ptr noundef nonnull align 8 dereferenceable(8) %12)
          to label %14 unwind label %32

14:                                               ; preds = %2
  %15 = load i64, ptr %13, align 8, !tbaa !10
  %16 = invoke noundef i32 @_ZNSt11char_traitsIcE7compareEPKcS2_m(ptr noundef %8, ptr noundef %10, i64 noundef %15)
          to label %17 unwind label %32

17:                                               ; preds = %14
  store i32 %16, ptr %5, align 4, !tbaa !14
  %18 = load i32, ptr %5, align 4, !tbaa !14
  %19 = icmp ne i32 %18, 0
  br i1 %19, label %20, label %22

20:                                               ; preds = %17
  %21 = load i32, ptr %5, align 4, !tbaa !14
  br label %30

22:                                               ; preds = %17
  %23 = getelementptr inbounds nuw %"class.OpenImageIO::v3_1_0::basic_string_view", ptr %6, i32 0, i32 1
  %24 = load i64, ptr %23, align 8, !tbaa !33
  %25 = trunc i64 %24 to i32
  %26 = getelementptr inbounds nuw %"class.OpenImageIO::v3_1_0::basic_string_view", ptr %1, i32 0, i32 1
  %27 = load i64, ptr %26, align 8, !tbaa !33
  %28 = trunc i64 %27 to i32
  %29 = sub nsw i32 %25, %28
  br label %30

30:                                               ; preds = %22, %20
  %31 = phi i32 [ %21, %20 ], [ %29, %22 ]
  call void @llvm.lifetime.end.p0(i64 4, ptr %5) #3
  ret i32 %31

32:                                               ; preds = %14, %2
  %33 = landingpad { ptr, i32 }
          catch ptr null
  %34 = extractvalue { ptr, i32 } %33, 0
  call void @__clang_call_terminate(ptr %34) #27
  unreachable
}

; Function Attrs: mustprogress nounwind uwtable
define linkonce_odr hidden noundef i64 @_ZNK11OpenImageIO6v3_1_017basic_string_viewIcSt11char_traitsIcEE4sizeEv(ptr noundef nonnull align 8 dereferenceable(16) %0) #10 comdat align 2 {
  %2 = alloca ptr, align 8
  store ptr %0, ptr %2, align 8, !tbaa !31
  %3 = load ptr, ptr %2, align 8
  %4 = getelementptr inbounds nuw %"class.OpenImageIO::v3_1_0::basic_string_view", ptr %3, i32 0, i32 1
  %5 = load i64, ptr %4, align 8, !tbaa !33
  ret i64 %5
}

; Function Attrs: mustprogress nounwind uwtable
define linkonce_odr hidden noundef ptr @_ZNK11OpenImageIO6v3_1_017basic_string_viewIcSt11char_traitsIcEE4dataEv(ptr noundef nonnull align 8 dereferenceable(16) %0) #10 comdat align 2 {
  %2 = alloca ptr, align 8
  store ptr %0, ptr %2, align 8, !tbaa !31
  %3 = load ptr, ptr %2, align 8
  %4 = getelementptr inbounds nuw %"class.OpenImageIO::v3_1_0::basic_string_view", ptr %3, i32 0, i32 0
  %5 = load ptr, ptr %4, align 8, !tbaa !35
  ret ptr %5
}

; Function Attrs: noinline noreturn nounwind uwtable
define linkonce_odr hidden void @__clang_call_terminate(ptr noundef %0) #14 comdat {
  %2 = call ptr @__cxa_begin_catch(ptr %0) #3
  call void @_ZSt9terminatev() #27
  unreachable
}

; Function Attrs: mustprogress nounwind uwtable
define linkonce_odr noundef i64 @_ZNSt11char_traitsIcE6lengthEPKc(ptr noundef %0) #10 comdat align 2 {
  %2 = alloca ptr, align 8
  store ptr %0, ptr %2, align 8, !tbaa !29
  %3 = load ptr, ptr %2, align 8, !tbaa !29
  %4 = call i64 @strlen(ptr noundef %3) #3
  ret i64 %4
}

; Function Attrs: mustprogress nounwind uwtable
define linkonce_odr hidden noundef zeroext i1 @_ZN11OpenImageIO6v3_1_0eqENS0_17basic_string_viewIcSt11char_traitsIcEEES4_(ptr noundef %0, ptr noundef %1) #10 comdat personality ptr @__gxx_personality_v0 {
  %3 = alloca ptr, align 8
  %4 = alloca ptr, align 8
  %5 = alloca %"class.OpenImageIO::v3_1_0::basic_string_view", align 8
  store ptr %0, ptr %3, align 8, !tbaa !31
  store ptr %1, ptr %4, align 8, !tbaa !31
  %6 = call noundef i64 @_ZNK11OpenImageIO6v3_1_017basic_string_viewIcSt11char_traitsIcEE4sizeEv(ptr noundef nonnull align 8 dereferenceable(16) %0) #3
  %7 = call noundef i64 @_ZNK11OpenImageIO6v3_1_017basic_string_viewIcSt11char_traitsIcEE4sizeEv(ptr noundef nonnull align 8 dereferenceable(16) %1) #3
  %8 = icmp eq i64 %6, %7
  br i1 %8, label %9, label %13

9:                                                ; preds = %2
  invoke void @_ZN11OpenImageIO6v3_1_017basic_string_viewIcSt11char_traitsIcEEC2ERKS4_(ptr noundef nonnull align 8 dereferenceable(16) %5, ptr noundef nonnull align 8 dereferenceable(16) %1)
          to label %10 unwind label %16

10:                                               ; preds = %9
  %11 = call noundef i32 @_ZNK11OpenImageIO6v3_1_017basic_string_viewIcSt11char_traitsIcEE7compareES4_(ptr noundef nonnull align 8 dereferenceable(16) %0, ptr noundef %5) #3
  %12 = icmp eq i32 %11, 0
  br label %14

13:                                               ; preds = %2
  br label %14

14:                                               ; preds = %13, %10
  %15 = phi i1 [ %12, %10 ], [ false, %13 ]
  ret i1 %15

16:                                               ; preds = %9
  %17 = landingpad { ptr, i32 }
          catch ptr null
  %18 = extractvalue { ptr, i32 } %17, 0
  call void @__clang_call_terminate(ptr %18) #27
  unreachable
}

; Function Attrs: mustprogress nounwind uwtable
define linkonce_odr hidden void @_ZN11OpenImageIO6v3_1_017basic_string_viewIcSt11char_traitsIcEEC2ERKS4_(ptr noundef nonnull align 8 dereferenceable(16) %0, ptr noundef nonnull align 8 dereferenceable(16) %1) unnamed_addr #10 comdat align 2 {
  %3 = alloca ptr, align 8
  %4 = alloca ptr, align 8
  store ptr %0, ptr %3, align 8, !tbaa !31
  store ptr %1, ptr %4, align 8, !tbaa !31
  %5 = load ptr, ptr %3, align 8
  %6 = getelementptr inbounds nuw %"class.OpenImageIO::v3_1_0::basic_string_view", ptr %5, i32 0, i32 0
  %7 = load ptr, ptr %4, align 8, !tbaa !31
  %8 = call noundef ptr @_ZNK11OpenImageIO6v3_1_017basic_string_viewIcSt11char_traitsIcEE4dataEv(ptr noundef nonnull align 8 dereferenceable(16) %7) #3
  store ptr %8, ptr %6, align 8, !tbaa !35
  %9 = getelementptr inbounds nuw %"class.OpenImageIO::v3_1_0::basic_string_view", ptr %5, i32 0, i32 1
  %10 = load ptr, ptr %4, align 8, !tbaa !31
  %11 = call noundef i64 @_ZNK11OpenImageIO6v3_1_017basic_string_viewIcSt11char_traitsIcEE4sizeEv(ptr noundef nonnull align 8 dereferenceable(16) %10) #3
  store i64 %11, ptr %9, align 8, !tbaa !33
  ret void
}

; Function Attrs: mustprogress nounwind uwtable
define linkonce_odr hidden void @_ZN11OpenImageIO6v3_1_017basic_string_viewIcSt11char_traitsIcEEC2Ev(ptr noundef nonnull align 8 dereferenceable(16) %0) unnamed_addr #10 comdat align 2 {
  %2 = alloca ptr, align 8
  store ptr %0, ptr %2, align 8, !tbaa !31
  %3 = load ptr, ptr %2, align 8
  %4 = getelementptr inbounds nuw %"class.OpenImageIO::v3_1_0::basic_string_view", ptr %3, i32 0, i32 0
  store ptr null, ptr %4, align 8, !tbaa !35
  %5 = getelementptr inbounds nuw %"class.OpenImageIO::v3_1_0::basic_string_view", ptr %3, i32 0, i32 1
  store i64 0, ptr %5, align 8, !tbaa !33
  ret void
}

; Function Attrs: mustprogress nounwind uwtable
define linkonce_odr hidden void @_ZN11OpenImageIO6v3_1_017basic_string_viewIcSt11char_traitsIcEEC2EPKc(ptr noundef nonnull align 8 dereferenceable(16) %0, ptr noundef %1) unnamed_addr #10 comdat align 2 personality ptr @__gxx_personality_v0 {
  %3 = alloca ptr, align 8
  %4 = alloca ptr, align 8
  store ptr %0, ptr %3, align 8, !tbaa !31
  store ptr %1, ptr %4, align 8, !tbaa !29
  %5 = load ptr, ptr %3, align 8
  %6 = getelementptr inbounds nuw %"class.OpenImageIO::v3_1_0::basic_string_view", ptr %5, i32 0, i32 0
  %7 = load ptr, ptr %4, align 8, !tbaa !29
  store ptr %7, ptr %6, align 8, !tbaa !35
  %8 = getelementptr inbounds nuw %"class.OpenImageIO::v3_1_0::basic_string_view", ptr %5, i32 0, i32 1
  %9 = load ptr, ptr %4, align 8, !tbaa !29
  %10 = icmp ne ptr %9, null
  br i1 %10, label %11, label %15

11:                                               ; preds = %2
  %12 = load ptr, ptr %4, align 8, !tbaa !29
  %13 = invoke noundef i64 @_ZNSt11char_traitsIcE6lengthEPKc(ptr noundef %12)
          to label %14 unwind label %18

14:                                               ; preds = %11
  br label %16

15:                                               ; preds = %2
  br label %16

16:                                               ; preds = %15, %14
  %17 = phi i64 [ %13, %14 ], [ 0, %15 ]
  store i64 %17, ptr %8, align 8, !tbaa !33
  ret void

18:                                               ; preds = %11
  %19 = landingpad { ptr, i32 }
          catch ptr null
  %20 = extractvalue { ptr, i32 } %19, 0
  call void @__clang_call_terminate(ptr %20) #27
  unreachable
}

; Function Attrs: mustprogress uwtable
define void @_ZN11OpenImageIO6v3_1_07Sysutil4TermC2ERKSo(ptr noundef nonnull align 1 dereferenceable(1) %0, ptr noundef nonnull align 8 dereferenceable(8) %1) unnamed_addr #6 align 2 {
  %3 = alloca ptr, align 8
  %4 = alloca ptr, align 8
  %5 = alloca %"class.OpenImageIO::v3_1_0::basic_string_view", align 8
  %6 = alloca %"class.OpenImageIO::v3_1_0::basic_string_view", align 8
  %7 = alloca %"class.OpenImageIO::v3_1_0::basic_string_view", align 8
  %8 = alloca i8, align 1
  %9 = alloca ptr, align 8
  %10 = alloca ptr, align 8
  %11 = alloca ptr, align 8
  %12 = alloca ptr, align 8
  %13 = alloca %"class.OpenImageIO::v3_1_0::basic_string_view", align 8
  %14 = alloca %"class.OpenImageIO::v3_1_0::basic_string_view", align 8
  store ptr %0, ptr %3, align 8, !tbaa !44
  store ptr %1, ptr %4, align 8, !tbaa !48
  %15 = load ptr, ptr %3, align 8
  %16 = getelementptr inbounds nuw %"class.OpenImageIO::v3_1_0::Sysutil::Term", ptr %15, i32 0, i32 0
  store i8 1, ptr %16, align 1, !tbaa !46
  %17 = load ptr, ptr %4, align 8, !tbaa !48
  %18 = icmp eq ptr %17, @_ZSt4cout
  br i1 %18, label %19, label %24

19:                                               ; preds = %2
  %20 = load ptr, ptr @stdout, align 8, !tbaa !12
  %21 = call i32 @fileno(ptr noundef %20) #3
  %22 = call i32 @isatty(i32 noundef %21) #3
  %23 = icmp ne i32 %22, 0
  br i1 %23, label %42, label %24

24:                                               ; preds = %19, %2
  %25 = load ptr, ptr %4, align 8, !tbaa !48
  %26 = icmp eq ptr %25, @_ZSt4cerr
  br i1 %26, label %27, label %32

27:                                               ; preds = %24
  %28 = load ptr, ptr @stderr, align 8, !tbaa !12
  %29 = call i32 @fileno(ptr noundef %28) #3
  %30 = call i32 @isatty(i32 noundef %29) #3
  %31 = icmp ne i32 %30, 0
  br i1 %31, label %42, label %32

32:                                               ; preds = %27, %24
  %33 = load ptr, ptr %4, align 8, !tbaa !48
  %34 = icmp eq ptr %33, @_ZSt4clog
  br i1 %34, label %35, label %40

35:                                               ; preds = %32
  %36 = load ptr, ptr @stderr, align 8, !tbaa !12
  %37 = call i32 @fileno(ptr noundef %36) #3
  %38 = call i32 @isatty(i32 noundef %37) #3
  %39 = icmp ne i32 %38, 0
  br label %40

40:                                               ; preds = %35, %32
  %41 = phi i1 [ false, %32 ], [ %39, %35 ]
  br label %42

42:                                               ; preds = %40, %27, %19
  %43 = phi i1 [ true, %27 ], [ true, %19 ], [ %41, %40 ]
  %44 = getelementptr inbounds nuw %"class.OpenImageIO::v3_1_0::Sysutil::Term", ptr %15, i32 0, i32 0
  %45 = zext i1 %43 to i8
  store i8 %45, ptr %44, align 1, !tbaa !46
  call void @llvm.lifetime.start.p0(i64 16, ptr %5) #3
  call void @_ZN11OpenImageIO6v3_1_017basic_string_viewIcSt11char_traitsIcEEC2EPKc(ptr noundef nonnull align 8 dereferenceable(16) %6, ptr noundef @.str.30) #3
  call void @_ZN11OpenImageIO6v3_1_017basic_string_viewIcSt11char_traitsIcEEC2Ev(ptr noundef nonnull align 8 dereferenceable(16) %7) #3
  call void @_ZN11OpenImageIO6v3_1_07Sysutil6getenvENS0_17basic_string_viewIcSt11char_traitsIcEEES5_(ptr dead_on_unwind writable sret(%"class.OpenImageIO::v3_1_0::basic_string_view") align 8 %5, ptr noundef %6, ptr noundef %7)
  call void @llvm.lifetime.start.p0(i64 1, ptr %8) #3
  store i8 0, ptr %8, align 1, !tbaa !8
  call void @llvm.lifetime.start.p0(i64 8, ptr %9) #3
  store ptr @_ZZN11OpenImageIO6v3_1_07Sysutil4TermC1ERKSoE19supported_terminals, ptr %9, align 8, !tbaa !50
  call void @llvm.lifetime.start.p0(i64 8, ptr %10) #3
  store ptr @_ZZN11OpenImageIO6v3_1_07Sysutil4TermC1ERKSoE19supported_terminals, ptr %10, align 8, !tbaa !50
  call void @llvm.lifetime.start.p0(i64 8, ptr %11) #3
  store ptr getelementptr inbounds (ptr, ptr @_ZZN11OpenImageIO6v3_1_07Sysutil4TermC1ERKSoE19supported_terminals, i64 20), ptr %11, align 8, !tbaa !50
  br label %46

46:                                               ; preds = %63, %42
  %47 = load ptr, ptr %10, align 8, !tbaa !50
  %48 = load ptr, ptr %11, align 8, !tbaa !50
  %49 = icmp ne ptr %47, %48
  br i1 %49, label %51, label %50

50:                                               ; preds = %46
  call void @llvm.lifetime.end.p0(i64 8, ptr %11) #3
  call void @llvm.lifetime.end.p0(i64 8, ptr %10) #3
  call void @llvm.lifetime.end.p0(i64 8, ptr %9) #3
  br label %66

51:                                               ; preds = %46
  call void @llvm.lifetime.start.p0(i64 8, ptr %12) #3
  %52 = load ptr, ptr %10, align 8, !tbaa !50
  %53 = load ptr, ptr %52, align 8, !tbaa !29
  store ptr %53, ptr %12, align 8, !tbaa !29
  call void @_ZN11OpenImageIO6v3_1_017basic_string_viewIcSt11char_traitsIcEEC2ERKS4_(ptr noundef nonnull align 8 dereferenceable(16) %13, ptr noundef nonnull align 8 dereferenceable(16) %5)
  %54 = load ptr, ptr %12, align 8, !tbaa !29
  call void @_ZN11OpenImageIO6v3_1_017basic_string_viewIcSt11char_traitsIcEEC2EPKc(ptr noundef nonnull align 8 dereferenceable(16) %14, ptr noundef %54) #3
  %55 = call noundef zeroext i1 @_ZN11OpenImageIO6v3_1_0eqENS0_17basic_string_viewIcSt11char_traitsIcEEES4_(ptr noundef %13, ptr noundef %14) #3
  %56 = zext i1 %55 to i32
  %57 = load i8, ptr %8, align 1, !tbaa !8, !range !16, !noundef !17
  %58 = trunc i8 %57 to i1
  %59 = zext i1 %58 to i32
  %60 = or i32 %59, %56
  %61 = icmp ne i32 %60, 0
  %62 = zext i1 %61 to i8
  store i8 %62, ptr %8, align 1, !tbaa !8
  call void @llvm.lifetime.end.p0(i64 8, ptr %12) #3
  br label %63

63:                                               ; preds = %51
  %64 = load ptr, ptr %10, align 8, !tbaa !50
  %65 = getelementptr inbounds nuw ptr, ptr %64, i32 1
  store ptr %65, ptr %10, align 8, !tbaa !50
  br label %46

66:                                               ; preds = %50
  %67 = load i8, ptr %8, align 1, !tbaa !8, !range !16, !noundef !17
  %68 = trunc i8 %67 to i1
  %69 = zext i1 %68 to i32
  %70 = getelementptr inbounds nuw %"class.OpenImageIO::v3_1_0::Sysutil::Term", ptr %15, i32 0, i32 0
  %71 = load i8, ptr %70, align 1, !tbaa !46, !range !16, !noundef !17
  %72 = trunc i8 %71 to i1
  %73 = zext i1 %72 to i32
  %74 = and i32 %73, %69
  %75 = icmp ne i32 %74, 0
  %76 = zext i1 %75 to i8
  store i8 %76, ptr %70, align 1, !tbaa !46
  call void @llvm.lifetime.end.p0(i64 1, ptr %8) #3
  call void @llvm.lifetime.end.p0(i64 16, ptr %5) #3
  ret void
}