; Function Attrs: mustprogress uwtable
define void @_ZN11OpenImageIO6v3_1_07Sysutil4TermC2ERKSo(ptr noundef nonnull align 1 captures(none) dereferenceable(1) initializes((0, 1)) %0, ptr noundef nonnull readnone align 8 dereferenceable(8) %1) unnamed_addr #5 align 2 personality ptr @__gxx_personality_v0 {
  %3 = alloca %"class.OpenImageIO::v3_1_0::basic_string_view", align 8
  %4 = alloca %"class.OpenImageIO::v3_1_0::basic_string_view", align 8
  %5 = alloca %"class.OpenImageIO::v3_1_0::basic_string_view", align 8
  store i8 1, ptr %0, align 1, !tbaa !27
  %6 = icmp eq ptr %1, @_ZSt4cout
  br i1 %6, label %7, label %11

7:                                                ; preds = %2
  %8 = load ptr, ptr @stdout, align 8, !tbaa !10
  %9 = tail call i32 @fileno(ptr noundef %8) #32
  %10 = tail call i32 @isatty(i32 noundef %9) #32
  %.not = icmp eq i32 %10, 0
  br i1 %.not, label %.thread15, label %25

11:                                               ; preds = %2
  %12 = icmp eq ptr %1, @_ZSt4cerr
  br i1 %12, label %13, label %17

13:                                               ; preds = %11
  %14 = load ptr, ptr @stderr, align 8, !tbaa !10
  %15 = tail call i32 @fileno(ptr noundef %14) #32
  %16 = tail call i32 @isatty(i32 noundef %15) #32
  %.not11 = icmp eq i32 %16, 0
  br i1 %.not11, label %.thread15, label %25

.thread15:                                        ; preds = %13, %7
  br label %25

17:                                               ; preds = %11
  %18 = icmp eq ptr %1, @_ZSt4clog
  br i1 %18, label %19, label %25

19:                                               ; preds = %17
  %20 = load ptr, ptr @stderr, align 8, !tbaa !10
  %21 = tail call i32 @fileno(ptr noundef %20) #32
  %22 = tail call i32 @isatty(i32 noundef %21) #32
  %23 = icmp ne i32 %22, 0
  %24 = zext i1 %23 to i8
  br label %25

25:                                               ; preds = %.thread15, %17, %19, %13, %7
  %26 = phi i8 [ 1, %13 ], [ 1, %7 ], [ 0, %17 ], [ %24, %19 ], [ 0, %.thread15 ]
  store i8 %26, ptr %0, align 1, !tbaa !27
  call void @llvm.lifetime.start.p0(i64 16, ptr nonnull %3) #32
  store ptr @.str.30, ptr %4, align 8, !tbaa !20
  %27 = getelementptr inbounds nuw i8, ptr %4, i64 8
  store i64 4, ptr %27, align 8, !tbaa !22
  call void @llvm.memset.p0.i64(ptr noundef nonnull align 8 dereferenceable(16) %5, i8 0, i64 16, i1 false)
  call void @_ZN11OpenImageIO6v3_1_07Sysutil6getenvENS0_17basic_string_viewIcSt11char_traitsIcEEES5_(ptr dead_on_unwind nonnull writable sret(%"class.OpenImageIO::v3_1_0::basic_string_view") align 8 %3, ptr noundef nonnull %4, ptr noundef nonnull %5)
  %28 = load ptr, ptr %3, align 8, !tbaa !20
  %29 = getelementptr inbounds nuw i8, ptr %3, i64 8
  %30 = load i64, ptr %29, align 8, !tbaa !22
  %.fr21 = freeze i64 %30
  %31 = icmp eq i64 %.fr21, 0
  br i1 %31, label %.split.us, label %.split

.split.us:                                        ; preds = %25, %_ZN11OpenImageIO6v3_1_017basic_string_viewIcSt11char_traitsIcEEC2EPKc.exit.us
  %.017.us = phi i1 [ %36, %_ZN11OpenImageIO6v3_1_017basic_string_viewIcSt11char_traitsIcEEC2EPKc.exit.us ], [ false, %25 ]
  %.010.idx16.us = phi i64 [ %.010.add.us, %_ZN11OpenImageIO6v3_1_017basic_string_viewIcSt11char_traitsIcEEC2EPKc.exit.us ], [ 0, %25 ]
  %.010.ptr.us = getelementptr inbounds nuw i8, ptr @_ZZN11OpenImageIO6v3_1_07Sysutil4TermC1ERKSoE19supported_terminals, i64 %.010.idx16.us
  %32 = load ptr, ptr %.010.ptr.us, align 8, !tbaa !30
  %.not.i.us = icmp eq ptr %32, null
  br i1 %.not.i.us, label %_ZN11OpenImageIO6v3_1_017basic_string_viewIcSt11char_traitsIcEEC2EPKc.exit.us, label %33

33:                                               ; preds = %.split.us
  %char0 = load i8, ptr %32, align 1
  %34 = icmp eq i8 %char0, 0
  br label %_ZN11OpenImageIO6v3_1_017basic_string_viewIcSt11char_traitsIcEEC2EPKc.exit.us

_ZN11OpenImageIO6v3_1_017basic_string_viewIcSt11char_traitsIcEEC2EPKc.exit.us: ; preds = %33, %.split.us
  %35 = phi i1 [ %34, %33 ], [ true, %.split.us ]
  %36 = or i1 %.017.us, %35
  %.010.add.us = add nuw nsw i64 %.010.idx16.us, 8
  %.not12.us = icmp eq i64 %.010.add.us, 160
  br i1 %.not12.us, label %.split19.us, label %.split.us

.split19.us:                                      ; preds = %_ZN11OpenImageIO6v3_1_0eqENS0_17basic_string_viewIcSt11char_traitsIcEEES4_.exit, %_ZN11OpenImageIO6v3_1_017basic_string_viewIcSt11char_traitsIcEEC2EPKc.exit.us
  %.us-phi = phi i1 [ %36, %_ZN11OpenImageIO6v3_1_017basic_string_viewIcSt11char_traitsIcEEC2EPKc.exit.us ], [ %47, %_ZN11OpenImageIO6v3_1_0eqENS0_17basic_string_viewIcSt11char_traitsIcEEES4_.exit ]
  %37 = load i8, ptr %0, align 1, !tbaa !27, !range !31, !noundef !32
  %38 = icmp ne i8 %37, 0
  %39 = and i1 %.us-phi, %38
  %40 = zext i1 %39 to i8
  store i8 %40, ptr %0, align 1, !tbaa !27
  call void @llvm.lifetime.end.p0(i64 16, ptr nonnull %3) #32
  ret void

.split:                                           ; preds = %25, %_ZN11OpenImageIO6v3_1_0eqENS0_17basic_string_viewIcSt11char_traitsIcEEES4_.exit
  %.017 = phi i1 [ %47, %_ZN11OpenImageIO6v3_1_0eqENS0_17basic_string_viewIcSt11char_traitsIcEEES4_.exit ], [ false, %25 ]
  %.010.idx16 = phi i64 [ %.010.add, %_ZN11OpenImageIO6v3_1_0eqENS0_17basic_string_viewIcSt11char_traitsIcEEES4_.exit ], [ 0, %25 ]
  %.010.ptr = getelementptr inbounds nuw i8, ptr @_ZZN11OpenImageIO6v3_1_07Sysutil4TermC1ERKSoE19supported_terminals, i64 %.010.idx16
  %41 = load ptr, ptr %.010.ptr, align 8, !tbaa !30
  %.not.i = icmp eq ptr %41, null
  br i1 %.not.i, label %_ZN11OpenImageIO6v3_1_017basic_string_viewIcSt11char_traitsIcEEC2EPKc.exit, label %42

42:                                               ; preds = %.split
  %43 = tail call noundef i64 @strlen(ptr noundef nonnull dereferenceable(1) %41) #32
  br label %_ZN11OpenImageIO6v3_1_017basic_string_viewIcSt11char_traitsIcEEC2EPKc.exit

_ZN11OpenImageIO6v3_1_017basic_string_viewIcSt11char_traitsIcEEC2EPKc.exit: ; preds = %.split, %42
  %44 = phi i64 [ %43, %42 ], [ 0, %.split ]
  %45 = icmp eq i64 %.fr21, %44
  br i1 %45, label %_ZNSt11char_traitsIcE7compareEPKcS2_m.exit.i.i, label %_ZN11OpenImageIO6v3_1_0eqENS0_17basic_string_viewIcSt11char_traitsIcEEES4_.exit

_ZNSt11char_traitsIcE7compareEPKcS2_m.exit.i.i:   ; preds = %_ZN11OpenImageIO6v3_1_017basic_string_viewIcSt11char_traitsIcEEC2EPKc.exit
  %bcmp.i = tail call i32 @bcmp(ptr %28, ptr %41, i64 %.fr21)
  %.not.i.i = icmp eq i32 %bcmp.i, 0
  br label %_ZN11OpenImageIO6v3_1_0eqENS0_17basic_string_viewIcSt11char_traitsIcEEES4_.exit

_ZN11OpenImageIO6v3_1_0eqENS0_17basic_string_viewIcSt11char_traitsIcEEES4_.exit: ; preds = %_ZNSt11char_traitsIcE7compareEPKcS2_m.exit.i.i, %_ZN11OpenImageIO6v3_1_017basic_string_viewIcSt11char_traitsIcEEC2EPKc.exit
  %46 = phi i1 [ false, %_ZN11OpenImageIO6v3_1_017basic_string_viewIcSt11char_traitsIcEEC2EPKc.exit ], [ %.not.i.i, %_ZNSt11char_traitsIcE7compareEPKcS2_m.exit.i.i ]
  %47 = or i1 %.017, %46
  %.010.add = add nuw nsw i64 %.010.idx16, 8
  %.not12 = icmp eq i64 %.010.add, 160
  br i1 %.not12, label %.split19.us, label %.split
}